; Function Attrs: mustprogress uwtable
define void @_ZN8QuantLib17RecoveryRateQuote5resetEv(ptr noundef nonnull align 8 dereferenceable(24) %this) local_unnamed_addr #4 align 2 {
entry:
  %recoveryRate_.i = getelementptr inbounds nuw i8, ptr %this, i64 16
  %0 = load double, ptr %recoveryRate_.i, align 8, !tbaa !14
  %cmp.i = fcmp une double %0, 0x47EFFFFFE0000000
  br i1 %cmp.i, label %if.then.i, label %_ZN8QuantLib17RecoveryRateQuote8setValueEd.exit

if.then.i:                                        ; preds = %entry
  store double 0x47EFFFFFE0000000, ptr %recoveryRate_.i, align 8, !tbaa !14
  %vtable.i = load ptr, ptr %this, align 8, !tbaa !3
  %vbase.offset.ptr.i = getelementptr i8, ptr %vtable.i, i64 -24
  %vbase.offset.i = load i64, ptr %vbase.offset.ptr.i, align 8
  %add.ptr.i = getelementptr inbounds i8, ptr %this, i64 %vbase.offset.i
  tail call void @_ZN8QuantLib10Observable15notifyObserversEv(ptr noundef nonnull align 8 dereferenceable(56) %add.ptr.i)
  br label %_ZN8QuantLib17RecoveryRateQuote8setValueEd.exit

_ZN8QuantLib17RecoveryRateQuote8setValueEd.exit:  ; preds = %entry, %if.then.i
  %seniority_ = getelementptr inbounds nuw i8, ptr %this, i64 8
  store i32 5, ptr %seniority_, align 8, !tbaa !38
  ret void
}